
CGADisplay_firmware.elf:     file format elf32-avr

Sections:
Idx Name          Size      VMA       LMA       File off  Algn
  0 .text         000009e4  00000000  00000000  00000074  2**1
                  CONTENTS, ALLOC, LOAD, READONLY, CODE
  1 .data         00000000  00800060  00800060  00000a58  2**0
                  CONTENTS, ALLOC, LOAD, DATA
  2 .bss          00000046  00800060  00800060  00000a58  2**0
                  ALLOC
  3 .comment      00000030  00000000  00000000  00000a58  2**0
                  CONTENTS, READONLY
  4 .note.gnu.avr.deviceinfo 0000003c  00000000  00000000  00000a88  2**2
                  CONTENTS, READONLY
  5 .debug_aranges 00000128  00000000  00000000  00000ac4  2**0
                  CONTENTS, READONLY, DEBUGGING
  6 .debug_info   000016f3  00000000  00000000  00000bec  2**0
                  CONTENTS, READONLY, DEBUGGING
  7 .debug_abbrev 00000922  00000000  00000000  000022df  2**0
                  CONTENTS, READONLY, DEBUGGING
  8 .debug_line   00000a93  00000000  00000000  00002c01  2**0
                  CONTENTS, READONLY, DEBUGGING
  9 .debug_frame  00000338  00000000  00000000  00003694  2**2
                  CONTENTS, READONLY, DEBUGGING
 10 .debug_str    00000579  00000000  00000000  000039cc  2**0
                  CONTENTS, READONLY, DEBUGGING
 11 .debug_loc    00000f1b  00000000  00000000  00003f45  2**0
                  CONTENTS, READONLY, DEBUGGING
 12 .debug_ranges 00000158  00000000  00000000  00004e60  2**0
                  CONTENTS, READONLY, DEBUGGING

Disassembly of section .text:

00000000 <__vectors>:
   0:	12 c0       	rjmp	.+36     	; 0x26 <__ctors_end>
   2:	21 c0       	rjmp	.+66     	; 0x46 <__bad_interrupt>
   4:	20 c0       	rjmp	.+64     	; 0x46 <__bad_interrupt>
   6:	1f c0       	rjmp	.+62     	; 0x46 <__bad_interrupt>
   8:	1e c0       	rjmp	.+60     	; 0x46 <__bad_interrupt>
   a:	1d c0       	rjmp	.+58     	; 0x46 <__bad_interrupt>
   c:	1c c0       	rjmp	.+56     	; 0x46 <__bad_interrupt>
   e:	1b c0       	rjmp	.+54     	; 0x46 <__bad_interrupt>
  10:	1a c0       	rjmp	.+52     	; 0x46 <__bad_interrupt>
  12:	19 c0       	rjmp	.+50     	; 0x46 <__bad_interrupt>
  14:	18 c0       	rjmp	.+48     	; 0x46 <__bad_interrupt>
  16:	17 c0       	rjmp	.+46     	; 0x46 <__bad_interrupt>
  18:	16 c0       	rjmp	.+44     	; 0x46 <__bad_interrupt>
  1a:	15 c0       	rjmp	.+42     	; 0x46 <__bad_interrupt>
  1c:	14 c0       	rjmp	.+40     	; 0x46 <__bad_interrupt>
  1e:	13 c0       	rjmp	.+38     	; 0x46 <__bad_interrupt>
  20:	12 c0       	rjmp	.+36     	; 0x46 <__bad_interrupt>
  22:	11 c0       	rjmp	.+34     	; 0x46 <__bad_interrupt>
  24:	10 c0       	rjmp	.+32     	; 0x46 <__bad_interrupt>

00000026 <__ctors_end>:
  26:	11 24       	eor	r1, r1
  28:	1f be       	out	0x3f, r1	; 63
  2a:	cf e5       	ldi	r28, 0x5F	; 95
  2c:	d4 e0       	ldi	r29, 0x04	; 4
  2e:	de bf       	out	0x3e, r29	; 62
  30:	cd bf       	out	0x3d, r28	; 61

00000032 <__do_clear_bss>:
  32:	20 e0       	ldi	r18, 0x00	; 0
  34:	a0 e6       	ldi	r26, 0x60	; 96
  36:	b0 e0       	ldi	r27, 0x00	; 0
  38:	01 c0       	rjmp	.+2      	; 0x3c <.do_clear_bss_start>

0000003a <.do_clear_bss_loop>:
  3a:	1d 92       	st	X+, r1

0000003c <.do_clear_bss_start>:
  3c:	a6 3a       	cpi	r26, 0xA6	; 166
  3e:	b2 07       	cpc	r27, r18
  40:	e1 f7       	brne	.-8      	; 0x3a <.do_clear_bss_loop>
  42:	f5 d0       	rcall	.+490    	; 0x22e <main>
  44:	cd c4       	rjmp	.+2458   	; 0x9e0 <_exit>

00000046 <__bad_interrupt>:
  46:	dc cf       	rjmp	.-72     	; 0x0 <__vectors>

00000048 <dpy_dataport_write_mode>:
{
	unsigned char ret = dpy_send_param(columns);
	ret |= dpy_send_param(0x00);
	ret |= dpy_send_cmd(SET_GRAPHIC_AREA);
	return ret;
}
  48:	18 ba       	out	0x18, r1	; 24
  4a:	8f ef       	ldi	r24, 0xFF	; 255
  4c:	87 bb       	out	0x17, r24	; 23
  4e:	08 95       	ret

00000050 <dpy_dataport_read_mode>:
  50:	18 ba       	out	0x18, r1	; 24
  52:	17 ba       	out	0x17, r1	; 23
  54:	08 95       	ret

00000056 <dpy_status_read_mode>:
  56:	80 91 62 00 	lds	r24, 0x0062	; 0x800062 <mode>
  5a:	82 30       	cpi	r24, 0x02	; 2
  5c:	49 f0       	breq	.+18     	; 0x70 <dpy_status_read_mode+0x1a>
  5e:	f8 df       	rcall	.-16     	; 0x50 <dpy_dataport_read_mode>
  60:	85 b3       	in	r24, 0x15	; 21
  62:	8d 7f       	andi	r24, 0xFD	; 253
  64:	85 bb       	out	0x15, r24	; 21
  66:	85 e0       	ldi	r24, 0x05	; 5
  68:	85 bb       	out	0x15, r24	; 21
  6a:	82 e0       	ldi	r24, 0x02	; 2
  6c:	80 93 62 00 	sts	0x0062, r24	; 0x800062 <mode>
  70:	08 95       	ret

00000072 <dpy_command_write_mode>:
  72:	80 91 62 00 	lds	r24, 0x0062	; 0x800062 <mode>
  76:	88 23       	and	r24, r24
  78:	41 f0       	breq	.+16     	; 0x8a <dpy_command_write_mode+0x18>
  7a:	e6 df       	rcall	.-52     	; 0x48 <dpy_dataport_write_mode>
  7c:	85 b3       	in	r24, 0x15	; 21
  7e:	8b 7f       	andi	r24, 0xFB	; 251
  80:	85 bb       	out	0x15, r24	; 21
  82:	83 e0       	ldi	r24, 0x03	; 3
  84:	85 bb       	out	0x15, r24	; 21
  86:	10 92 62 00 	sts	0x0062, r1	; 0x800062 <mode>
  8a:	08 95       	ret

0000008c <dpy_data_write_mode>:
  8c:	80 91 62 00 	lds	r24, 0x0062	; 0x800062 <mode>
  90:	88 23       	and	r24, r24
  92:	59 f0       	breq	.+22     	; 0xaa <dpy_data_write_mode+0x1e>
  94:	d9 df       	rcall	.-78     	; 0x48 <dpy_dataport_write_mode>
  96:	85 b3       	in	r24, 0x15	; 21
  98:	8b 7f       	andi	r24, 0xFB	; 251
  9a:	85 bb       	out	0x15, r24	; 21
  9c:	85 b3       	in	r24, 0x15	; 21
  9e:	8e 7f       	andi	r24, 0xFE	; 254
  a0:	85 bb       	out	0x15, r24	; 21
  a2:	82 e0       	ldi	r24, 0x02	; 2
  a4:	85 bb       	out	0x15, r24	; 21
  a6:	10 92 62 00 	sts	0x0062, r1	; 0x800062 <mode>
  aa:	08 95       	ret

000000ac <dpy_status_read>:
  ac:	d4 df       	rcall	.-88     	; 0x56 <dpy_status_read_mode>
  ae:	85 b3       	in	r24, 0x15	; 21
  b0:	87 7f       	andi	r24, 0xF7	; 247
  b2:	85 bb       	out	0x15, r24	; 21
  b4:	86 b3       	in	r24, 0x16	; 22
  b6:	95 b3       	in	r25, 0x15	; 21
  b8:	98 60       	ori	r25, 0x08	; 8
  ba:	95 bb       	out	0x15, r25	; 21
  bc:	08 95       	ret

000000be <dpy_send_cmd>:
  be:	cf 93       	push	r28
  c0:	c8 2f       	mov	r28, r24
  c2:	d7 df       	rcall	.-82     	; 0x72 <dpy_command_write_mode>
  c4:	c8 bb       	out	0x18, r28	; 24
  c6:	85 b3       	in	r24, 0x15	; 21
  c8:	87 7f       	andi	r24, 0xF7	; 247
  ca:	85 bb       	out	0x15, r24	; 21
  cc:	85 b3       	in	r24, 0x15	; 21
  ce:	88 60       	ori	r24, 0x08	; 8
  d0:	85 bb       	out	0x15, r24	; 21
  d2:	ec df       	rcall	.-40     	; 0xac <dpy_status_read>
  d4:	cf 91       	pop	r28
  d6:	08 95       	ret

000000d8 <dpy_send_param>:
  d8:	cf 93       	push	r28
  da:	c8 2f       	mov	r28, r24
  dc:	d7 df       	rcall	.-82     	; 0x8c <dpy_data_write_mode>
  de:	c8 bb       	out	0x18, r28	; 24
  e0:	85 b3       	in	r24, 0x15	; 21
  e2:	87 7f       	andi	r24, 0xF7	; 247
  e4:	85 bb       	out	0x15, r24	; 21
  e6:	85 b3       	in	r24, 0x15	; 21
  e8:	88 60       	ori	r24, 0x08	; 8
  ea:	85 bb       	out	0x15, r24	; 21
  ec:	df df       	rcall	.-66     	; 0xac <dpy_status_read>
  ee:	cf 91       	pop	r28
  f0:	08 95       	ret

000000f2 <dpy_set_display_mode>:
  f2:	e5 df       	rcall	.-54     	; 0xbe <dpy_send_cmd>
  f4:	08 95       	ret

000000f6 <dpy_set_graphic_home>:
  f6:	cf 93       	push	r28
  f8:	df 93       	push	r29
  fa:	d8 2f       	mov	r29, r24
  fc:	86 2f       	mov	r24, r22
  fe:	ec df       	rcall	.-40     	; 0xd8 <dpy_send_param>
 100:	c8 2f       	mov	r28, r24
 102:	8d 2f       	mov	r24, r29
 104:	e9 df       	rcall	.-46     	; 0xd8 <dpy_send_param>
 106:	c8 2b       	or	r28, r24
 108:	82 e4       	ldi	r24, 0x42	; 66
 10a:	d9 df       	rcall	.-78     	; 0xbe <dpy_send_cmd>
 10c:	8c 2b       	or	r24, r28
 10e:	df 91       	pop	r29
 110:	cf 91       	pop	r28
 112:	08 95       	ret

00000114 <dpy_init>:
 114:	15 ba       	out	0x15, r1	; 21
 116:	8f e0       	ldi	r24, 0x0F	; 15
 118:	84 bb       	out	0x14, r24	; 20
 11a:	9d df       	rcall	.-198    	; 0x56 <dpy_status_read_mode>
 11c:	2f ef       	ldi	r18, 0xFF	; 255
 11e:	81 ee       	ldi	r24, 0xE1	; 225
 120:	94 e0       	ldi	r25, 0x04	; 4
 122:	21 50       	subi	r18, 0x01	; 1
 124:	80 40       	sbci	r24, 0x00	; 0
 126:	90 40       	sbci	r25, 0x00	; 0
 128:	e1 f7       	brne	.-8      	; 0x122 <dpy_init+0xe>
 12a:	00 c0       	rjmp	.+0      	; 0x12c <dpy_init+0x18>
 12c:	00 00       	nop
 12e:	85 b3       	in	r24, 0x15	; 21
 130:	88 60       	ori	r24, 0x08	; 8
 132:	85 bb       	out	0x15, r24	; 21
 134:	8a e9       	ldi	r24, 0x9A	; 154
 136:	dd df       	rcall	.-70     	; 0xf2 <dpy_set_display_mode>
 138:	6c e0       	ldi	r22, 0x0C	; 12
 13a:	80 e0       	ldi	r24, 0x00	; 0
 13c:	dc df       	rcall	.-72     	; 0xf6 <dpy_set_graphic_home>
 13e:	08 95       	ret

00000140 <dpy_set_address_pointer>:

unsigned char dpy_set_address_pointer(unsigned char high, unsigned char low)
{
 140:	cf 93       	push	r28
 142:	df 93       	push	r29
 144:	d8 2f       	mov	r29, r24
 146:	86 2f       	mov	r24, r22
	unsigned char ret = dpy_send_param(low);
 148:	c7 df       	rcall	.-114    	; 0xd8 <dpy_send_param>
 14a:	c8 2f       	mov	r28, r24
	ret |= dpy_send_param(high);
 14c:	8d 2f       	mov	r24, r29
 14e:	c4 df       	rcall	.-120    	; 0xd8 <dpy_send_param>
 150:	c8 2b       	or	r28, r24
	ret |= dpy_send_cmd(SET_ADDRESS_POINTER);
 152:	84 e2       	ldi	r24, 0x24	; 36
 154:	b4 df       	rcall	.-152    	; 0xbe <dpy_send_cmd>
	return ret;
}
 156:	8c 2b       	or	r24, r28
 158:	df 91       	pop	r29
 15a:	cf 91       	pop	r28
 15c:	08 95       	ret

0000015e <dpy_data_write>:

unsigned char dpy_data_write(unsigned char data)
{
 15e:	cf 93       	push	r28
	unsigned char ret = dpy_send_param(data);
 160:	bb df       	rcall	.-138    	; 0xd8 <dpy_send_param>
 162:	c8 2f       	mov	r28, r24
	ret |= dpy_send_cmd(DATA_WRITE);
 164:	80 ec       	ldi	r24, 0xC0	; 192
 166:	ab df       	rcall	.-170    	; 0xbe <dpy_send_cmd>
	return ret;
}
 168:	8c 2b       	or	r24, r28
 16a:	cf 91       	pop	r28
 16c:	08 95       	ret

0000016e <dpy_point>:
unsigned char cell = 0;

unsigned char dpy_point(unsigned char color)
{
	unsigned char ret = 0;
	row |= color & (0b10000000>>cell);
 16e:	90 91 60 00 	lds	r25, 0x0060	; 0x800060 <__DATA_REGION_ORIGIN__>
 172:	20 e8       	ldi	r18, 0x80	; 128
 174:	30 e0       	ldi	r19, 0x00	; 0
 176:	09 2e       	mov	r0, r25
 178:	02 c0       	rjmp	.+4      	; 0x17e <dpy_point+0x10>
 17a:	35 95       	asr	r19
 17c:	27 95       	ror	r18
 17e:	0a 94       	dec	r0
 180:	e2 f7       	brpl	.-8      	; 0x17a <dpy_point+0xc>
 182:	82 23       	and	r24, r18
 184:	20 91 61 00 	lds	r18, 0x0061	; 0x800061 <row>
 188:	82 2b       	or	r24, r18
 18a:	80 93 61 00 	sts	0x0061, r24	; 0x800061 <row>
	if (cell == 7) ret = dpy_data_write(row);
 18e:	97 30       	cpi	r25, 0x07	; 7
 190:	11 f4       	brne	.+4      	; 0x196 <dpy_point+0x28>
 192:	e5 df       	rcall	.-54     	; 0x15e <dpy_data_write>
 194:	01 c0       	rjmp	.+2      	; 0x198 <dpy_point+0x2a>
unsigned char row = 0;
unsigned char cell = 0;

unsigned char dpy_point(unsigned char color)
{
	unsigned char ret = 0;
 196:	80 e0       	ldi	r24, 0x00	; 0
	row |= color & (0b10000000>>cell);
	if (cell == 7) ret = dpy_data_write(row);
	cell ++;
 198:	90 91 60 00 	lds	r25, 0x0060	; 0x800060 <__DATA_REGION_ORIGIN__>
 19c:	9f 5f       	subi	r25, 0xFF	; 255
 19e:	90 93 60 00 	sts	0x0060, r25	; 0x800060 <__DATA_REGION_ORIGIN__>
	if (cell == 8)
 1a2:	98 30       	cpi	r25, 0x08	; 8
 1a4:	21 f4       	brne	.+8      	; 0x1ae <dpy_point+0x40>
	{
		row = 0;
 1a6:	10 92 61 00 	sts	0x0061, r1	; 0x800061 <row>
		cell = 0;
 1aa:	10 92 60 00 	sts	0x0060, r1	; 0x800060 <__DATA_REGION_ORIGIN__>
	}
	
	return ret;
}
 1ae:	08 95       	ret

000001b0 <dpy_clear>:

void dpy_clear()
{
 1b0:	1f 93       	push	r17
 1b2:	cf 93       	push	r28
 1b4:	df 93       	push	r29
	dpy_set_address_pointer(GRAPHIC_AREA & 0x00FF, GRAPHIC_AREA >> 8);
 1b6:	6c e0       	ldi	r22, 0x0C	; 12
 1b8:	80 e0       	ldi	r24, 0x00	; 0
 1ba:	c2 df       	rcall	.-124    	; 0x140 <dpy_set_address_pointer>
	for (unsigned char y = 0; y < DISPLAY_HEIGHT; y++)
 1bc:	10 e0       	ldi	r17, 0x00	; 0
 1be:	0b c0       	rjmp	.+22     	; 0x1d6 <dpy_clear+0x26>
		for (unsigned int x = 0; x < DISPLAY_WIDTH; x++)
			dpy_point(DISPLAY_BACKGROUND);
 1c0:	80 e0       	ldi	r24, 0x00	; 0
 1c2:	d5 df       	rcall	.-86     	; 0x16e <dpy_point>

void dpy_clear()
{
	dpy_set_address_pointer(GRAPHIC_AREA & 0x00FF, GRAPHIC_AREA >> 8);
	for (unsigned char y = 0; y < DISPLAY_HEIGHT; y++)
		for (unsigned int x = 0; x < DISPLAY_WIDTH; x++)
 1c4:	21 96       	adiw	r28, 0x01	; 1
 1c6:	02 c0       	rjmp	.+4      	; 0x1cc <dpy_clear+0x1c>
 1c8:	c0 e0       	ldi	r28, 0x00	; 0
 1ca:	d0 e0       	ldi	r29, 0x00	; 0
 1cc:	c0 34       	cpi	r28, 0x40	; 64
 1ce:	81 e0       	ldi	r24, 0x01	; 1
 1d0:	d8 07       	cpc	r29, r24
 1d2:	b0 f3       	brcs	.-20     	; 0x1c0 <dpy_clear+0x10>
}

void dpy_clear()
{
	dpy_set_address_pointer(GRAPHIC_AREA & 0x00FF, GRAPHIC_AREA >> 8);
	for (unsigned char y = 0; y < DISPLAY_HEIGHT; y++)
 1d4:	1f 5f       	subi	r17, 0xFF	; 255
 1d6:	11 23       	and	r17, r17
 1d8:	bc f7       	brge	.-18     	; 0x1c8 <dpy_clear+0x18>
		for (unsigned int x = 0; x < DISPLAY_WIDTH; x++)
			dpy_point(DISPLAY_BACKGROUND);
}
 1da:	df 91       	pop	r29
 1dc:	cf 91       	pop	r28
 1de:	1f 91       	pop	r17
 1e0:	08 95       	ret

000001e2 <draw>:
#include <avr/io.h>
#include "twod.h"
#include "LM4229.h"

void draw(shape** shapes, unsigned char shapes_count)
{
 1e2:	ef 92       	push	r14
 1e4:	ff 92       	push	r15
 1e6:	0f 93       	push	r16
 1e8:	1f 93       	push	r17
 1ea:	cf 93       	push	r28
 1ec:	df 93       	push	r29
 1ee:	7c 01       	movw	r14, r24
 1f0:	06 2f       	mov	r16, r22
	dpy_set_address_pointer(GRAPHIC_AREA & 0x00FF, GRAPHIC_AREA >> 8);
 1f2:	6c e0       	ldi	r22, 0x0C	; 12
 1f4:	80 e0       	ldi	r24, 0x00	; 0
 1f6:	a4 df       	rcall	.-184    	; 0x140 <dpy_set_address_pointer>
	for (unsigned char y = 0; y < DISPLAY_HEIGHT; y++)
 1f8:	10 e0       	ldi	r17, 0x00	; 0
 1fa:	10 c0       	rjmp	.+32     	; 0x21c <__EEPROM_REGION_LENGTH__+0x1c>
		for (unsigned int x = 0; x < DISPLAY_WIDTH; x++)
		{
			PORTD = dpy_point(point_color(x, y, shapes, shapes_count));
 1fc:	20 2f       	mov	r18, r16
 1fe:	a7 01       	movw	r20, r14
 200:	61 2f       	mov	r22, r17
 202:	ce 01       	movw	r24, r28
 204:	e4 d1       	rcall	.+968    	; 0x5ce <point_color>
 206:	b3 df       	rcall	.-154    	; 0x16e <dpy_point>
 208:	82 bb       	out	0x12, r24	; 18

void draw(shape** shapes, unsigned char shapes_count)
{
	dpy_set_address_pointer(GRAPHIC_AREA & 0x00FF, GRAPHIC_AREA >> 8);
	for (unsigned char y = 0; y < DISPLAY_HEIGHT; y++)
		for (unsigned int x = 0; x < DISPLAY_WIDTH; x++)
 20a:	21 96       	adiw	r28, 0x01	; 1
 20c:	02 c0       	rjmp	.+4      	; 0x212 <__EEPROM_REGION_LENGTH__+0x12>
 20e:	c0 e0       	ldi	r28, 0x00	; 0
 210:	d0 e0       	ldi	r29, 0x00	; 0
 212:	c0 34       	cpi	r28, 0x40	; 64
 214:	81 e0       	ldi	r24, 0x01	; 1
 216:	d8 07       	cpc	r29, r24
 218:	88 f3       	brcs	.-30     	; 0x1fc <draw+0x1a>
#include "LM4229.h"

void draw(shape** shapes, unsigned char shapes_count)
{
	dpy_set_address_pointer(GRAPHIC_AREA & 0x00FF, GRAPHIC_AREA >> 8);
	for (unsigned char y = 0; y < DISPLAY_HEIGHT; y++)
 21a:	1f 5f       	subi	r17, 0xFF	; 255
 21c:	11 23       	and	r17, r17
 21e:	bc f7       	brge	.-18     	; 0x20e <__EEPROM_REGION_LENGTH__+0xe>
		for (unsigned int x = 0; x < DISPLAY_WIDTH; x++)
		{
			PORTD = dpy_point(point_color(x, y, shapes, shapes_count));
			
		}
}
 220:	df 91       	pop	r29
 222:	cf 91       	pop	r28
 224:	1f 91       	pop	r17
 226:	0f 91       	pop	r16
 228:	ff 90       	pop	r15
 22a:	ef 90       	pop	r14
 22c:	08 95       	ret

0000022e <main>:
dot dot1;


int main(void)
{
	PORTD = (0<<BIT7)|(0<<BIT6)|(0<<BIT5)|(0<<BIT4)|(0<<BIT3)|(0<<BIT2)|(0<<BIT1)|(0<<BIT0);
 22e:	12 ba       	out	0x12, r1	; 18
	DDRD = (1<<BIT7)|(1<<BIT6)|(1<<BIT5)|(1<<BIT4)|(1<<BIT3)|(1<<BIT2)|(1<<BIT1)|(1<<BIT0);
 230:	8f ef       	ldi	r24, 0xFF	; 255
 232:	81 bb       	out	0x11, r24	; 17

	dpy_init();
 234:	6f df       	rcall	.-290    	; 0x114 <dpy_init>
    /* Replace with your application code */
	shapes[0] = (shape*)set_rect(20, 20, 60, 60, BLACK, BLACK, &rect1);
 236:	0f 2e       	mov	r0, r31
 238:	f5 e9       	ldi	r31, 0x95	; 149
 23a:	cf 2e       	mov	r12, r31
 23c:	f0 e0       	ldi	r31, 0x00	; 0
 23e:	df 2e       	mov	r13, r31
 240:	f0 2d       	mov	r31, r0
 242:	ee 24       	eor	r14, r14
 244:	ea 94       	dec	r14
 246:	0f ef       	ldi	r16, 0xFF	; 255
 248:	2c e3       	ldi	r18, 0x3C	; 60
 24a:	4c e3       	ldi	r20, 0x3C	; 60
 24c:	64 e1       	ldi	r22, 0x14	; 20
 24e:	84 e1       	ldi	r24, 0x14	; 20
 250:	90 e0       	ldi	r25, 0x00	; 0
 252:	6e d0       	rcall	.+220    	; 0x330 <set_rect>
 254:	c8 e6       	ldi	r28, 0x68	; 104
 256:	d0 e0       	ldi	r29, 0x00	; 0
 258:	99 83       	std	Y+1, r25	; 0x01
 25a:	88 83       	st	Y, r24
	shapes[1] = (shape*)set_circle(50, 50, 30, WHITE, WHITE, &circle1);
 25c:	0f 2e       	mov	r0, r31
 25e:	fc e7       	ldi	r31, 0x7C	; 124
 260:	ef 2e       	mov	r14, r31
 262:	f0 e0       	ldi	r31, 0x00	; 0
 264:	ff 2e       	mov	r15, r31
 266:	f0 2d       	mov	r31, r0
 268:	00 e0       	ldi	r16, 0x00	; 0
 26a:	20 e0       	ldi	r18, 0x00	; 0
 26c:	4e e1       	ldi	r20, 0x1E	; 30
 26e:	62 e3       	ldi	r22, 0x32	; 50
 270:	82 e3       	ldi	r24, 0x32	; 50
 272:	90 e0       	ldi	r25, 0x00	; 0
 274:	71 d0       	rcall	.+226    	; 0x358 <set_circle>
 276:	9b 83       	std	Y+3, r25	; 0x03
 278:	8a 83       	std	Y+2, r24	; 0x02
	shapes[2] = (shape*)set_line(20, 50, 30, 30, BLACK, &line1);
 27a:	0f 2e       	mov	r0, r31
 27c:	f3 e8       	ldi	r31, 0x83	; 131
 27e:	ef 2e       	mov	r14, r31
 280:	f0 e0       	ldi	r31, 0x00	; 0
 282:	ff 2e       	mov	r15, r31
 284:	f0 2d       	mov	r31, r0
 286:	0f ef       	ldi	r16, 0xFF	; 255
 288:	2e e1       	ldi	r18, 0x1E	; 30
 28a:	30 e0       	ldi	r19, 0x00	; 0
 28c:	4e e1       	ldi	r20, 0x1E	; 30
 28e:	50 e0       	ldi	r21, 0x00	; 0
 290:	62 e3       	ldi	r22, 0x32	; 50
 292:	84 e1       	ldi	r24, 0x14	; 20
 294:	90 e0       	ldi	r25, 0x00	; 0
 296:	39 d0       	rcall	.+114    	; 0x30a <set_line>
 298:	9d 83       	std	Y+5, r25	; 0x05
 29a:	8c 83       	std	Y+4, r24	; 0x04
	shapes[3] = (shape*)set_line(50, 80, 30, -30, BLACK, &line2);
 29c:	0f 2e       	mov	r0, r31
 29e:	fd e9       	ldi	r31, 0x9D	; 157
 2a0:	ef 2e       	mov	r14, r31
 2a2:	f0 e0       	ldi	r31, 0x00	; 0
 2a4:	ff 2e       	mov	r15, r31
 2a6:	f0 2d       	mov	r31, r0
 2a8:	22 ee       	ldi	r18, 0xE2	; 226
 2aa:	3f ef       	ldi	r19, 0xFF	; 255
 2ac:	4e e1       	ldi	r20, 0x1E	; 30
 2ae:	50 e0       	ldi	r21, 0x00	; 0
 2b0:	60 e5       	ldi	r22, 0x50	; 80
 2b2:	82 e3       	ldi	r24, 0x32	; 50
 2b4:	90 e0       	ldi	r25, 0x00	; 0
 2b6:	29 d0       	rcall	.+82     	; 0x30a <set_line>
 2b8:	9f 83       	std	Y+7, r25	; 0x07
 2ba:	8e 83       	std	Y+6, r24	; 0x06
	shapes[4] = (shape*)set_line(20, 50, 60, 0, BLACK, &line3);
 2bc:	0f 2e       	mov	r0, r31
 2be:	fc e8       	ldi	r31, 0x8C	; 140
 2c0:	ef 2e       	mov	r14, r31
 2c2:	f0 e0       	ldi	r31, 0x00	; 0
 2c4:	ff 2e       	mov	r15, r31
 2c6:	f0 2d       	mov	r31, r0
 2c8:	20 e0       	ldi	r18, 0x00	; 0
 2ca:	30 e0       	ldi	r19, 0x00	; 0
 2cc:	4c e3       	ldi	r20, 0x3C	; 60
 2ce:	50 e0       	ldi	r21, 0x00	; 0
 2d0:	62 e3       	ldi	r22, 0x32	; 50
 2d2:	84 e1       	ldi	r24, 0x14	; 20
 2d4:	90 e0       	ldi	r25, 0x00	; 0
 2d6:	19 d0       	rcall	.+50     	; 0x30a <set_line>
 2d8:	99 87       	std	Y+9, r25	; 0x09
 2da:	88 87       	std	Y+8, r24	; 0x08
	shapes[5] = (shape*)set_dot(50, 40, BLACK, &dot1);
 2dc:	23 e6       	ldi	r18, 0x63	; 99
 2de:	30 e0       	ldi	r19, 0x00	; 0
 2e0:	4f ef       	ldi	r20, 0xFF	; 255
 2e2:	68 e2       	ldi	r22, 0x28	; 40
 2e4:	82 e3       	ldi	r24, 0x32	; 50
 2e6:	90 e0       	ldi	r25, 0x00	; 0
 2e8:	08 d0       	rcall	.+16     	; 0x2fa <set_dot>
 2ea:	9b 87       	std	Y+11, r25	; 0x0b
 2ec:	8a 87       	std	Y+10, r24	; 0x0a
	
    while (1)
    {
		dpy_clear();
 2ee:	60 df       	rcall	.-320    	; 0x1b0 <dpy_clear>
		draw(shapes, 6);
 2f0:	66 e0       	ldi	r22, 0x06	; 6
 2f2:	88 e6       	ldi	r24, 0x68	; 104
 2f4:	90 e0       	ldi	r25, 0x00	; 0
 2f6:	75 df       	rcall	.-278    	; 0x1e2 <draw>
 2f8:	fa cf       	rjmp	.-12     	; 0x2ee <main+0xc0>

000002fa <set_dot>:
#include "twod.h"
#include <math.h>
#include <stdlib.h>

dot* set_dot(unsigned int x, unsigned char y, unsigned char color, dot* shape)
{
 2fa:	f9 01       	movw	r30, r18
	shape->flags = DOT;
 2fc:	10 82       	st	Z, r1
	shape->x = x;
 2fe:	92 83       	std	Z+2, r25	; 0x02
 300:	81 83       	std	Z+1, r24	; 0x01
	shape->y = y;
 302:	63 83       	std	Z+3, r22	; 0x03
	shape->color = color;
 304:	44 83       	std	Z+4, r20	; 0x04

	return shape;
}
 306:	c9 01       	movw	r24, r18
 308:	08 95       	ret

0000030a <set_line>:

line* set_line(unsigned int x, unsigned char y, short dx, short dy, char color, line* shape)
{
 30a:	ef 92       	push	r14
 30c:	ff 92       	push	r15
 30e:	0f 93       	push	r16
 310:	f7 01       	movw	r30, r14
	shape->flags = LINE;
 312:	71 e0       	ldi	r23, 0x01	; 1
 314:	70 83       	st	Z, r23
	shape->x = x;
 316:	92 83       	std	Z+2, r25	; 0x02
 318:	81 83       	std	Z+1, r24	; 0x01
	shape->y = y;
 31a:	63 83       	std	Z+3, r22	; 0x03
	shape->dx = dx;
 31c:	55 83       	std	Z+5, r21	; 0x05
 31e:	44 83       	std	Z+4, r20	; 0x04
	shape->dy = dy;
 320:	37 83       	std	Z+7, r19	; 0x07
 322:	26 83       	std	Z+6, r18	; 0x06
	shape->color = color;
 324:	00 87       	std	Z+8, r16	; 0x08
	return shape;
}
 326:	c7 01       	movw	r24, r14
 328:	0f 91       	pop	r16
 32a:	ff 90       	pop	r15
 32c:	ef 90       	pop	r14
 32e:	08 95       	ret

00000330 <set_rect>:


rect* set_rect(unsigned int x, unsigned char y, unsigned char dx, unsigned char dy, unsigned char color, unsigned char fillcolor, rect* shape)
{
 330:	cf 92       	push	r12
 332:	df 92       	push	r13
 334:	ef 92       	push	r14
 336:	0f 93       	push	r16
 338:	f6 01       	movw	r30, r12
	shape->flags = RECTANGLE;
 33a:	33 e0       	ldi	r19, 0x03	; 3
 33c:	30 83       	st	Z, r19
	shape->x = x;
 33e:	92 83       	std	Z+2, r25	; 0x02
 340:	81 83       	std	Z+1, r24	; 0x01
	shape->y = y;
 342:	63 83       	std	Z+3, r22	; 0x03
	shape->dx = dx;
 344:	44 83       	std	Z+4, r20	; 0x04
	shape->dy = dy;
 346:	25 83       	std	Z+5, r18	; 0x05
	shape->color = color;
 348:	06 83       	std	Z+6, r16	; 0x06
	shape->fillcolor = fillcolor;
 34a:	e7 82       	std	Z+7, r14	; 0x07
	return shape;
}
 34c:	c6 01       	movw	r24, r12
 34e:	0f 91       	pop	r16
 350:	ef 90       	pop	r14
 352:	df 90       	pop	r13
 354:	cf 90       	pop	r12
 356:	08 95       	ret

00000358 <set_circle>:

circle* set_circle(unsigned int x, unsigned char y, unsigned char r, unsigned char color, unsigned char fillcolor, circle* shape)
{
 358:	ef 92       	push	r14
 35a:	ff 92       	push	r15
 35c:	0f 93       	push	r16
 35e:	f7 01       	movw	r30, r14
	shape->flags = CIRCLE;
 360:	34 e0       	ldi	r19, 0x04	; 4
 362:	30 83       	st	Z, r19
	shape->x = x;
 364:	92 83       	std	Z+2, r25	; 0x02
 366:	81 83       	std	Z+1, r24	; 0x01
	shape->y = y;
 368:	63 83       	std	Z+3, r22	; 0x03
	shape->r = r;
 36a:	44 83       	std	Z+4, r20	; 0x04
	shape->color = color;
 36c:	25 83       	std	Z+5, r18	; 0x05
	shape->fillcolor = fillcolor;
 36e:	06 83       	std	Z+6, r16	; 0x06
	return shape;
}
 370:	c7 01       	movw	r24, r14
 372:	0f 91       	pop	r16
 374:	ff 90       	pop	r15
 376:	ef 90       	pop	r14
 378:	08 95       	ret

0000037a <calc_dot>:


unsigned char calc_dot(unsigned int x, unsigned char y, shape* shape)
{
	if (x == ((dot*)shape)->x && y == ((dot*)shape)->y)
 37a:	fa 01       	movw	r30, r20
 37c:	21 81       	ldd	r18, Z+1	; 0x01
 37e:	32 81       	ldd	r19, Z+2	; 0x02
 380:	28 17       	cp	r18, r24
 382:	39 07       	cpc	r19, r25
 384:	29 f4       	brne	.+10     	; 0x390 <calc_dot+0x16>
 386:	83 81       	ldd	r24, Z+3	; 0x03
 388:	86 13       	cpse	r24, r22
 38a:	04 c0       	rjmp	.+8      	; 0x394 <calc_dot+0x1a>
		return ((dot*)shape)->color;
 38c:	84 81       	ldd	r24, Z+4	; 0x04
 38e:	08 95       	ret
	return TRANSPARENT_COLOR;
 390:	8f e0       	ldi	r24, 0x0F	; 15
 392:	08 95       	ret
 394:	8f e0       	ldi	r24, 0x0F	; 15
}
 396:	08 95       	ret

00000398 <calc_line>:

unsigned char calc_line(unsigned int x, unsigned char y, shape* shape)
{
 398:	4f 92       	push	r4
 39a:	5f 92       	push	r5
 39c:	6f 92       	push	r6
 39e:	7f 92       	push	r7
 3a0:	8f 92       	push	r8
 3a2:	9f 92       	push	r9
 3a4:	af 92       	push	r10
 3a6:	bf 92       	push	r11
 3a8:	cf 92       	push	r12
 3aa:	df 92       	push	r13
 3ac:	ef 92       	push	r14
 3ae:	ff 92       	push	r15
 3b0:	0f 93       	push	r16
 3b2:	1f 93       	push	r17
 3b4:	cf 93       	push	r28
 3b6:	df 93       	push	r29
 3b8:	fa 01       	movw	r30, r20
	int xx = x - ((line*)shape)->x;
 3ba:	21 81       	ldd	r18, Z+1	; 0x01
 3bc:	32 81       	ldd	r19, Z+2	; 0x02
 3be:	6c 01       	movw	r12, r24
 3c0:	c2 1a       	sub	r12, r18
 3c2:	d3 0a       	sbc	r13, r19
 3c4:	76 01       	movw	r14, r12
	short yy = y - ((line*)shape)->y;
 3c6:	83 81       	ldd	r24, Z+3	; 0x03
 3c8:	c6 2f       	mov	r28, r22
 3ca:	d0 e0       	ldi	r29, 0x00	; 0
 3cc:	c8 1b       	sub	r28, r24
 3ce:	d1 09       	sbc	r29, r1
	
	if (xx <= 0 && xx >= ((line*)shape)->dx)
 3d0:	1c 14       	cp	r1, r12
 3d2:	1d 04       	cpc	r1, r13
 3d4:	34 f0       	brlt	.+12     	; 0x3e2 <calc_line+0x4a>
 3d6:	84 81       	ldd	r24, Z+4	; 0x04
 3d8:	95 81       	ldd	r25, Z+5	; 0x05
 3da:	c8 16       	cp	r12, r24
 3dc:	d9 06       	cpc	r13, r25
 3de:	0c f0       	brlt	.+2      	; 0x3e2 <calc_line+0x4a>
 3e0:	40 c0       	rjmp	.+128    	; 0x462 <__stack+0x3>
		return TRANSPARENT_COLOR;
		
	if (yy < 0 && yy > ((line*)shape)->dy && ((line*)shape)->dy >= 0)
 3e2:	dd 23       	and	r29, r29
 3e4:	3c f4       	brge	.+14     	; 0x3f4 <calc_line+0x5c>
 3e6:	86 81       	ldd	r24, Z+6	; 0x06
 3e8:	97 81       	ldd	r25, Z+7	; 0x07
 3ea:	8c 17       	cp	r24, r28
 3ec:	9d 07       	cpc	r25, r29
 3ee:	14 f4       	brge	.+4      	; 0x3f4 <calc_line+0x5c>
 3f0:	99 23       	and	r25, r25
 3f2:	cc f5       	brge	.+114    	; 0x466 <__stack+0x7>
		return TRANSPARENT_COLOR;

	if (yy > 0 && yy < ((line*)shape)->dy && ((line*)shape)->dy <= 0)
 3f4:	1c 16       	cp	r1, r28
 3f6:	1d 06       	cpc	r1, r29
 3f8:	44 f4       	brge	.+16     	; 0x40a <__DATA_REGION_LENGTH__+0xa>
 3fa:	86 81       	ldd	r24, Z+6	; 0x06
 3fc:	97 81       	ldd	r25, Z+7	; 0x07
 3fe:	c8 17       	cp	r28, r24
 400:	d9 07       	cpc	r29, r25
 402:	1c f4       	brge	.+6      	; 0x40a <__DATA_REGION_LENGTH__+0xa>
 404:	18 16       	cp	r1, r24
 406:	19 06       	cpc	r1, r25
 408:	84 f5       	brge	.+96     	; 0x46a <__stack+0xb>
 40a:	8f 01       	movw	r16, r30
		return TRANSPARENT_COLOR;

	float k = (float )(((line*)shape)->dy/((line*)shape)->dx);
 40c:	86 81       	ldd	r24, Z+6	; 0x06
 40e:	97 81       	ldd	r25, Z+7	; 0x07
 410:	64 80       	ldd	r6, Z+4	; 0x04
 412:	75 80       	ldd	r7, Z+5	; 0x05
 414:	b3 01       	movw	r22, r6
 416:	bd d2       	rcall	.+1402   	; 0x992 <__divmodhi4>
 418:	07 2e       	mov	r0, r23
 41a:	00 0c       	add	r0, r0
 41c:	88 0b       	sbc	r24, r24
 41e:	99 0b       	sbc	r25, r25
 420:	4e d1       	rcall	.+668    	; 0x6be <__floatsisf>
 422:	4b 01       	movw	r8, r22
 424:	5c 01       	movw	r10, r24
	if (xx >= 0 && xx <= ((line*)shape)->dx && yy == k * xx)
 426:	ff 20       	and	r15, r15
 428:	14 f1       	brlt	.+68     	; 0x46e <__stack+0xf>
 42a:	6e 14       	cp	r6, r14
 42c:	7f 04       	cpc	r7, r15
 42e:	0c f1       	brlt	.+66     	; 0x472 <__stack+0x13>
 430:	be 01       	movw	r22, r28
 432:	dd 0f       	add	r29, r29
 434:	88 0b       	sbc	r24, r24
 436:	99 0b       	sbc	r25, r25
 438:	42 d1       	rcall	.+644    	; 0x6be <__floatsisf>
 43a:	2b 01       	movw	r4, r22
 43c:	3c 01       	movw	r6, r24
 43e:	b6 01       	movw	r22, r12
 440:	dd 0c       	add	r13, r13
 442:	88 0b       	sbc	r24, r24
 444:	99 0b       	sbc	r25, r25
 446:	3b d1       	rcall	.+630    	; 0x6be <__floatsisf>
 448:	a5 01       	movw	r20, r10
 44a:	94 01       	movw	r18, r8
 44c:	c0 d1       	rcall	.+896    	; 0x7ce <__mulsf3>
 44e:	9b 01       	movw	r18, r22
 450:	ac 01       	movw	r20, r24
 452:	c3 01       	movw	r24, r6
 454:	b2 01       	movw	r22, r4
 456:	01 d1       	rcall	.+514    	; 0x65a <__cmpsf2>
 458:	81 11       	cpse	r24, r1
 45a:	0d c0       	rjmp	.+26     	; 0x476 <__stack+0x17>
		return ((line*)shape)->color;
 45c:	f8 01       	movw	r30, r16
 45e:	80 85       	ldd	r24, Z+8	; 0x08
 460:	0b c0       	rjmp	.+22     	; 0x478 <__stack+0x19>
{
	int xx = x - ((line*)shape)->x;
	short yy = y - ((line*)shape)->y;
	
	if (xx <= 0 && xx >= ((line*)shape)->dx)
		return TRANSPARENT_COLOR;
 462:	8f e0       	ldi	r24, 0x0F	; 15
 464:	09 c0       	rjmp	.+18     	; 0x478 <__stack+0x19>
		
	if (yy < 0 && yy > ((line*)shape)->dy && ((line*)shape)->dy >= 0)
		return TRANSPARENT_COLOR;
 466:	8f e0       	ldi	r24, 0x0F	; 15
 468:	07 c0       	rjmp	.+14     	; 0x478 <__stack+0x19>

	if (yy > 0 && yy < ((line*)shape)->dy && ((line*)shape)->dy <= 0)
		return TRANSPARENT_COLOR;
 46a:	8f e0       	ldi	r24, 0x0F	; 15
 46c:	05 c0       	rjmp	.+10     	; 0x478 <__stack+0x19>

	float k = (float )(((line*)shape)->dy/((line*)shape)->dx);
	if (xx >= 0 && xx <= ((line*)shape)->dx && yy == k * xx)
		return ((line*)shape)->color;
	
	return TRANSPARENT_COLOR;
 46e:	8f e0       	ldi	r24, 0x0F	; 15
 470:	03 c0       	rjmp	.+6      	; 0x478 <__stack+0x19>
 472:	8f e0       	ldi	r24, 0x0F	; 15
 474:	01 c0       	rjmp	.+2      	; 0x478 <__stack+0x19>
 476:	8f e0       	ldi	r24, 0x0F	; 15
}
 478:	df 91       	pop	r29
 47a:	cf 91       	pop	r28
 47c:	1f 91       	pop	r17
 47e:	0f 91       	pop	r16
 480:	ff 90       	pop	r15
 482:	ef 90       	pop	r14
 484:	df 90       	pop	r13
 486:	cf 90       	pop	r12
 488:	bf 90       	pop	r11
 48a:	af 90       	pop	r10
 48c:	9f 90       	pop	r9
 48e:	8f 90       	pop	r8
 490:	7f 90       	pop	r7
 492:	6f 90       	pop	r6
 494:	5f 90       	pop	r5
 496:	4f 90       	pop	r4
 498:	08 95       	ret

0000049a <calc_rect>:

unsigned char calc_rect(unsigned int x, unsigned char y, shape* shape)
{
 49a:	fa 01       	movw	r30, r20
	unsigned char color = TRANSPARENT_COLOR;

	int xx = x - ((line*)shape)->x;
 49c:	21 81       	ldd	r18, Z+1	; 0x01
 49e:	32 81       	ldd	r19, Z+2	; 0x02
 4a0:	82 1b       	sub	r24, r18
 4a2:	93 0b       	sbc	r25, r19
 4a4:	9c 01       	movw	r18, r24
	short yy = y - ((line*)shape)->y;
 4a6:	83 81       	ldd	r24, Z+3	; 0x03
 4a8:	70 e0       	ldi	r23, 0x00	; 0
 4aa:	68 1b       	sub	r22, r24
 4ac:	71 09       	sbc	r23, r1
	
	if (xx >= 0 &&
 4ae:	33 23       	and	r19, r19
 4b0:	34 f1       	brlt	.+76     	; 0x4fe <calc_rect+0x64>
		xx <= ((rect*)shape)->dx &&
 4b2:	44 81       	ldd	r20, Z+4	; 0x04
 4b4:	50 e0       	ldi	r21, 0x00	; 0
	unsigned char color = TRANSPARENT_COLOR;

	int xx = x - ((line*)shape)->x;
	short yy = y - ((line*)shape)->y;
	
	if (xx >= 0 &&
 4b6:	42 17       	cp	r20, r18
 4b8:	53 07       	cpc	r21, r19
 4ba:	1c f1       	brlt	.+70     	; 0x502 <calc_rect+0x68>
		xx <= ((rect*)shape)->dx &&
 4bc:	77 23       	and	r23, r23
 4be:	1c f1       	brlt	.+70     	; 0x506 <calc_rect+0x6c>
		yy >= 0 &&
		yy <= ((rect*)shape)->dy)
 4c0:	a5 81       	ldd	r26, Z+5	; 0x05
 4c2:	b0 e0       	ldi	r27, 0x00	; 0
	int xx = x - ((line*)shape)->x;
	short yy = y - ((line*)shape)->y;
	
	if (xx >= 0 &&
		xx <= ((rect*)shape)->dx &&
		yy >= 0 &&
 4c4:	a6 17       	cp	r26, r22
 4c6:	b7 07       	cpc	r27, r23
 4c8:	04 f1       	brlt	.+64     	; 0x50a <calc_rect+0x70>
		yy <= ((rect*)shape)->dy)
	{
		color = ((rect*)shape)->fillcolor;
 4ca:	87 81       	ldd	r24, Z+7	; 0x07

		if (xx >= 0 && xx <= ((rect*)shape)->dx && (yy == 0 || yy == ((rect*)shape)->dy))
 4cc:	33 23       	and	r19, r19
 4ce:	54 f0       	brlt	.+20     	; 0x4e4 <calc_rect+0x4a>
 4d0:	42 17       	cp	r20, r18
 4d2:	53 07       	cpc	r21, r19
 4d4:	3c f0       	brlt	.+14     	; 0x4e4 <calc_rect+0x4a>
 4d6:	61 15       	cp	r22, r1
 4d8:	71 05       	cpc	r23, r1
 4da:	19 f0       	breq	.+6      	; 0x4e2 <calc_rect+0x48>
 4dc:	6a 17       	cp	r22, r26
 4de:	7b 07       	cpc	r23, r27
 4e0:	09 f4       	brne	.+2      	; 0x4e4 <calc_rect+0x4a>
			color = ((rect*)shape)->color;
 4e2:	86 81       	ldd	r24, Z+6	; 0x06

		if (yy >= 0 && yy <= ((rect*)shape)->dy && (xx == 0 || xx == ((rect*)shape)->dx))
 4e4:	77 23       	and	r23, r23
 4e6:	94 f0       	brlt	.+36     	; 0x50c <calc_rect+0x72>
 4e8:	a6 17       	cp	r26, r22
 4ea:	b7 07       	cpc	r27, r23
 4ec:	7c f0       	brlt	.+30     	; 0x50c <calc_rect+0x72>
 4ee:	21 15       	cp	r18, r1
 4f0:	31 05       	cpc	r19, r1
 4f2:	19 f0       	breq	.+6      	; 0x4fa <calc_rect+0x60>
 4f4:	24 17       	cp	r18, r20
 4f6:	35 07       	cpc	r19, r21
 4f8:	49 f4       	brne	.+18     	; 0x50c <calc_rect+0x72>
			color = ((rect*)shape)->color;
 4fa:	86 81       	ldd	r24, Z+6	; 0x06
 4fc:	08 95       	ret
	return TRANSPARENT_COLOR;
}

unsigned char calc_rect(unsigned int x, unsigned char y, shape* shape)
{
	unsigned char color = TRANSPARENT_COLOR;
 4fe:	8f e0       	ldi	r24, 0x0F	; 15
 500:	08 95       	ret
 502:	8f e0       	ldi	r24, 0x0F	; 15
 504:	08 95       	ret
 506:	8f e0       	ldi	r24, 0x0F	; 15
 508:	08 95       	ret
 50a:	8f e0       	ldi	r24, 0x0F	; 15
		if (yy >= 0 && yy <= ((rect*)shape)->dy && (xx == 0 || xx == ((rect*)shape)->dx))
			color = ((rect*)shape)->color;
	}
		
	return color;
}
 50c:	08 95       	ret

0000050e <calc_circle>:

unsigned char calc_circle(unsigned int x, unsigned char y, shape* shape)
{
 50e:	cf 92       	push	r12
 510:	df 92       	push	r13
 512:	ef 92       	push	r14
 514:	ff 92       	push	r15
 516:	0f 93       	push	r16
 518:	1f 93       	push	r17
 51a:	cf 93       	push	r28
 51c:	df 93       	push	r29
 51e:	fa 01       	movw	r30, r20
	unsigned char color = TRANSPARENT_COLOR;
	
	if (x >= ((circle*)shape)->x - ((circle*)shape)->r &&
 520:	41 81       	ldd	r20, Z+1	; 0x01
 522:	52 81       	ldd	r21, Z+2	; 0x02
 524:	24 81       	ldd	r18, Z+4	; 0x04
 526:	02 2f       	mov	r16, r18
 528:	10 e0       	ldi	r17, 0x00	; 0
 52a:	da 01       	movw	r26, r20
 52c:	a0 1b       	sub	r26, r16
 52e:	b1 0b       	sbc	r27, r17
 530:	8a 17       	cp	r24, r26
 532:	9b 07       	cpc	r25, r27
 534:	e0 f1       	brcs	.+120    	; 0x5ae <calc_circle+0xa0>
	    x <= ((circle*)shape)->x + ((circle*)shape)->r &&
 536:	da 01       	movw	r26, r20
 538:	a0 0f       	add	r26, r16
 53a:	b1 1f       	adc	r27, r17

unsigned char calc_circle(unsigned int x, unsigned char y, shape* shape)
{
	unsigned char color = TRANSPARENT_COLOR;
	
	if (x >= ((circle*)shape)->x - ((circle*)shape)->r &&
 53c:	a8 17       	cp	r26, r24
 53e:	b9 07       	cpc	r27, r25
 540:	c0 f1       	brcs	.+112    	; 0x5b2 <calc_circle+0xa4>
	    x <= ((circle*)shape)->x + ((circle*)shape)->r &&
		y >= ((circle*)shape)->y - ((circle*)shape)->r &&
 542:	70 e0       	ldi	r23, 0x00	; 0
 544:	a3 81       	ldd	r26, Z+3	; 0x03
 546:	b0 e0       	ldi	r27, 0x00	; 0
 548:	98 01       	movw	r18, r16
 54a:	ed 01       	movw	r28, r26
 54c:	c2 1b       	sub	r28, r18
 54e:	d3 0b       	sbc	r29, r19
unsigned char calc_circle(unsigned int x, unsigned char y, shape* shape)
{
	unsigned char color = TRANSPARENT_COLOR;
	
	if (x >= ((circle*)shape)->x - ((circle*)shape)->r &&
	    x <= ((circle*)shape)->x + ((circle*)shape)->r &&
 550:	6c 17       	cp	r22, r28
 552:	7d 07       	cpc	r23, r29
 554:	84 f1       	brlt	.+96     	; 0x5b6 <calc_circle+0xa8>
		y >= ((circle*)shape)->y - ((circle*)shape)->r &&
		y <= ((circle*)shape)->y + ((circle*)shape)->r)
 556:	2a 0f       	add	r18, r26
 558:	3b 1f       	adc	r19, r27
{
	unsigned char color = TRANSPARENT_COLOR;
	
	if (x >= ((circle*)shape)->x - ((circle*)shape)->r &&
	    x <= ((circle*)shape)->x + ((circle*)shape)->r &&
		y >= ((circle*)shape)->y - ((circle*)shape)->r &&
 55a:	26 17       	cp	r18, r22
 55c:	37 07       	cpc	r19, r23
 55e:	6c f1       	brlt	.+90     	; 0x5ba <calc_circle+0xac>
 560:	ef 01       	movw	r28, r30
		y <= ((circle*)shape)->y + ((circle*)shape)->r)
	{
		int dx = ((circle*)shape)->x - x;
 562:	48 1b       	sub	r20, r24
 564:	59 0b       	sbc	r21, r25
		short dy = ((circle*)shape)->y - y;
 566:	a6 1b       	sub	r26, r22
 568:	b7 0b       	sbc	r27, r23
		unsigned int r = sqrt(dx * dx +  dy * dy);
 56a:	44 9f       	mul	r20, r20
 56c:	60 01       	movw	r12, r0
 56e:	45 9f       	mul	r20, r21
 570:	d0 0c       	add	r13, r0
 572:	d0 0c       	add	r13, r0
 574:	11 24       	eor	r1, r1
 576:	aa 9f       	mul	r26, r26
 578:	c0 01       	movw	r24, r0
 57a:	ab 9f       	mul	r26, r27
 57c:	90 0d       	add	r25, r0
 57e:	90 0d       	add	r25, r0
 580:	11 24       	eor	r1, r1
 582:	c8 0e       	add	r12, r24
 584:	d9 1e       	adc	r13, r25
 586:	0d 2c       	mov	r0, r13
 588:	00 0c       	add	r0, r0
 58a:	ee 08       	sbc	r14, r14
 58c:	ff 08       	sbc	r15, r15
 58e:	c7 01       	movw	r24, r14
 590:	b6 01       	movw	r22, r12
 592:	95 d0       	rcall	.+298    	; 0x6be <__floatsisf>
 594:	83 d1       	rcall	.+774    	; 0x89c <sqrt>
 596:	65 d0       	rcall	.+202    	; 0x662 <__fixunssfsi>
		if (r <= ((circle*)shape)->r)
 598:	06 17       	cp	r16, r22
 59a:	17 07       	cpc	r17, r23
 59c:	10 f0       	brcs	.+4      	; 0x5a2 <calc_circle+0x94>
			color = (((circle*)shape)->fillcolor);
 59e:	8e 81       	ldd	r24, Y+6	; 0x06
 5a0:	01 c0       	rjmp	.+2      	; 0x5a4 <calc_circle+0x96>
	return color;
}

unsigned char calc_circle(unsigned int x, unsigned char y, shape* shape)
{
	unsigned char color = TRANSPARENT_COLOR;
 5a2:	8f e0       	ldi	r24, 0x0F	; 15
		int dx = ((circle*)shape)->x - x;
		short dy = ((circle*)shape)->y - y;
		unsigned int r = sqrt(dx * dx +  dy * dy);
		if (r <= ((circle*)shape)->r)
			color = (((circle*)shape)->fillcolor);
		if (r == ((circle*)shape)->r)
 5a4:	06 17       	cp	r16, r22
 5a6:	17 07       	cpc	r17, r23
 5a8:	49 f4       	brne	.+18     	; 0x5bc <calc_circle+0xae>
			color = (((circle*)shape)->color);
 5aa:	8d 81       	ldd	r24, Y+5	; 0x05
 5ac:	07 c0       	rjmp	.+14     	; 0x5bc <calc_circle+0xae>
	return color;
}

unsigned char calc_circle(unsigned int x, unsigned char y, shape* shape)
{
	unsigned char color = TRANSPARENT_COLOR;
 5ae:	8f e0       	ldi	r24, 0x0F	; 15
 5b0:	05 c0       	rjmp	.+10     	; 0x5bc <calc_circle+0xae>
 5b2:	8f e0       	ldi	r24, 0x0F	; 15
 5b4:	03 c0       	rjmp	.+6      	; 0x5bc <calc_circle+0xae>
 5b6:	8f e0       	ldi	r24, 0x0F	; 15
 5b8:	01 c0       	rjmp	.+2      	; 0x5bc <calc_circle+0xae>
 5ba:	8f e0       	ldi	r24, 0x0F	; 15
		if (r == ((circle*)shape)->r)
			color = (((circle*)shape)->color);
	}
		
	return color;
}
 5bc:	df 91       	pop	r29
 5be:	cf 91       	pop	r28
 5c0:	1f 91       	pop	r17
 5c2:	0f 91       	pop	r16
 5c4:	ff 90       	pop	r15
 5c6:	ef 90       	pop	r14
 5c8:	df 90       	pop	r13
 5ca:	cf 90       	pop	r12
 5cc:	08 95       	ret

000005ce <point_color>:

#define NUM_ROWS 16

unsigned char point_color(unsigned int x, unsigned char y, shape** shapes, unsigned char shapes_count)
{
 5ce:	cf 92       	push	r12
 5d0:	df 92       	push	r13
 5d2:	ef 92       	push	r14
 5d4:	ff 92       	push	r15
 5d6:	0f 93       	push	r16
 5d8:	1f 93       	push	r17
 5da:	cf 93       	push	r28
 5dc:	df 93       	push	r29
 5de:	ec 01       	movw	r28, r24
 5e0:	c6 2e       	mov	r12, r22
 5e2:	8a 01       	movw	r16, r20
 5e4:	e2 2e       	mov	r14, r18
	unsigned char color = TRANSPARENT_COLOR;
	unsigned char pcolor = BACKGROUND_COLOR;
	
	for (unsigned char j = 0; j < shapes_count; j++)
 5e6:	f1 2c       	mov	r15, r1
#define NUM_ROWS 16

unsigned char point_color(unsigned int x, unsigned char y, shape** shapes, unsigned char shapes_count)
{
	unsigned char color = TRANSPARENT_COLOR;
	unsigned char pcolor = BACKGROUND_COLOR;
 5e8:	d1 2c       	mov	r13, r1
	
	for (unsigned char j = 0; j < shapes_count; j++)
 5ea:	2b c0       	rjmp	.+86     	; 0x642 <point_color+0x74>
	{
		color = TRANSPARENT_COLOR;
		if (shapes[j] == 0) continue;
 5ec:	ef 2d       	mov	r30, r15
 5ee:	f0 e0       	ldi	r31, 0x00	; 0
 5f0:	ee 0f       	add	r30, r30
 5f2:	ff 1f       	adc	r31, r31
 5f4:	e0 0f       	add	r30, r16
 5f6:	f1 1f       	adc	r31, r17
 5f8:	40 81       	ld	r20, Z
 5fa:	51 81       	ldd	r21, Z+1	; 0x01
 5fc:	41 15       	cp	r20, r1
 5fe:	51 05       	cpc	r21, r1
 600:	f9 f0       	breq	.+62     	; 0x640 <point_color+0x72>
		switch(shapes[j]->flags & SHAPE_MASK)
 602:	fa 01       	movw	r30, r20
 604:	80 81       	ld	r24, Z
 606:	87 70       	andi	r24, 0x07	; 7
 608:	81 30       	cpi	r24, 0x01	; 1
 60a:	51 f0       	breq	.+20     	; 0x620 <point_color+0x52>
 60c:	28 f0       	brcs	.+10     	; 0x618 <point_color+0x4a>
 60e:	83 30       	cpi	r24, 0x03	; 3
 610:	59 f0       	breq	.+22     	; 0x628 <point_color+0x5a>
 612:	84 30       	cpi	r24, 0x04	; 4
 614:	69 f0       	breq	.+26     	; 0x630 <point_color+0x62>
 616:	10 c0       	rjmp	.+32     	; 0x638 <point_color+0x6a>
			{
			case DOT:
				color = calc_dot(x, y, shapes[j]);
 618:	6c 2d       	mov	r22, r12
 61a:	ce 01       	movw	r24, r28
 61c:	ae de       	rcall	.-676    	; 0x37a <calc_dot>
				break;
 61e:	0d c0       	rjmp	.+26     	; 0x63a <point_color+0x6c>
			case LINE:
				color = calc_line(x, y, shapes[j]);
 620:	6c 2d       	mov	r22, r12
 622:	ce 01       	movw	r24, r28
 624:	b9 de       	rcall	.-654    	; 0x398 <calc_line>
				break;
 626:	09 c0       	rjmp	.+18     	; 0x63a <point_color+0x6c>
			case RECTANGLE:
				color = calc_rect(x, y, shapes[j]);
 628:	6c 2d       	mov	r22, r12
 62a:	ce 01       	movw	r24, r28
 62c:	36 df       	rcall	.-404    	; 0x49a <calc_rect>
				break;
 62e:	05 c0       	rjmp	.+10     	; 0x63a <point_color+0x6c>
			case CIRCLE:
				color = calc_circle(x, y, shapes[j]);
 630:	6c 2d       	mov	r22, r12
 632:	ce 01       	movw	r24, r28
 634:	6c df       	rcall	.-296    	; 0x50e <calc_circle>
				break;
 636:	01 c0       	rjmp	.+2      	; 0x63a <point_color+0x6c>
			default:
				color = TRANSPARENT_COLOR;
 638:	8f e0       	ldi	r24, 0x0F	; 15
				break;
		}
		pcolor = (color != TRANSPARENT_COLOR)? color : pcolor;
 63a:	8f 30       	cpi	r24, 0x0F	; 15
 63c:	09 f0       	breq	.+2      	; 0x640 <point_color+0x72>
 63e:	d8 2e       	mov	r13, r24
unsigned char point_color(unsigned int x, unsigned char y, shape** shapes, unsigned char shapes_count)
{
	unsigned char color = TRANSPARENT_COLOR;
	unsigned char pcolor = BACKGROUND_COLOR;
	
	for (unsigned char j = 0; j < shapes_count; j++)
 640:	f3 94       	inc	r15
 642:	fe 14       	cp	r15, r14
 644:	98 f2       	brcs	.-90     	; 0x5ec <point_color+0x1e>
		}
		pcolor = (color != TRANSPARENT_COLOR)? color : pcolor;
	}
	
	return pcolor;
}
 646:	8d 2d       	mov	r24, r13
 648:	df 91       	pop	r29
 64a:	cf 91       	pop	r28
 64c:	1f 91       	pop	r17
 64e:	0f 91       	pop	r16
 650:	ff 90       	pop	r15
 652:	ef 90       	pop	r14
 654:	df 90       	pop	r13
 656:	cf 90       	pop	r12
 658:	08 95       	ret

0000065a <__cmpsf2>:
 65a:	6c d0       	rcall	.+216    	; 0x734 <__fp_cmp>
 65c:	08 f4       	brcc	.+2      	; 0x660 <__cmpsf2+0x6>
 65e:	81 e0       	ldi	r24, 0x01	; 1
 660:	08 95       	ret

00000662 <__fixunssfsi>:
 662:	94 d0       	rcall	.+296    	; 0x78c <__fp_splitA>
 664:	88 f0       	brcs	.+34     	; 0x688 <__fixunssfsi+0x26>
 666:	9f 57       	subi	r25, 0x7F	; 127
 668:	90 f0       	brcs	.+36     	; 0x68e <__fixunssfsi+0x2c>
 66a:	b9 2f       	mov	r27, r25
 66c:	99 27       	eor	r25, r25
 66e:	b7 51       	subi	r27, 0x17	; 23
 670:	a0 f0       	brcs	.+40     	; 0x69a <__fixunssfsi+0x38>
 672:	d1 f0       	breq	.+52     	; 0x6a8 <__fixunssfsi+0x46>
 674:	66 0f       	add	r22, r22
 676:	77 1f       	adc	r23, r23
 678:	88 1f       	adc	r24, r24
 67a:	99 1f       	adc	r25, r25
 67c:	1a f0       	brmi	.+6      	; 0x684 <__fixunssfsi+0x22>
 67e:	ba 95       	dec	r27
 680:	c9 f7       	brne	.-14     	; 0x674 <__fixunssfsi+0x12>
 682:	12 c0       	rjmp	.+36     	; 0x6a8 <__fixunssfsi+0x46>
 684:	b1 30       	cpi	r27, 0x01	; 1
 686:	81 f0       	breq	.+32     	; 0x6a8 <__fixunssfsi+0x46>
 688:	9b d0       	rcall	.+310    	; 0x7c0 <__fp_zero>
 68a:	b1 e0       	ldi	r27, 0x01	; 1
 68c:	08 95       	ret
 68e:	98 c0       	rjmp	.+304    	; 0x7c0 <__fp_zero>
 690:	67 2f       	mov	r22, r23
 692:	78 2f       	mov	r23, r24
 694:	88 27       	eor	r24, r24
 696:	b8 5f       	subi	r27, 0xF8	; 248
 698:	39 f0       	breq	.+14     	; 0x6a8 <__fixunssfsi+0x46>
 69a:	b9 3f       	cpi	r27, 0xF9	; 249
 69c:	cc f3       	brlt	.-14     	; 0x690 <__fixunssfsi+0x2e>
 69e:	86 95       	lsr	r24
 6a0:	77 95       	ror	r23
 6a2:	67 95       	ror	r22
 6a4:	b3 95       	inc	r27
 6a6:	d9 f7       	brne	.-10     	; 0x69e <__fixunssfsi+0x3c>
 6a8:	3e f4       	brtc	.+14     	; 0x6b8 <__fixunssfsi+0x56>
 6aa:	90 95       	com	r25
 6ac:	80 95       	com	r24
 6ae:	70 95       	com	r23
 6b0:	61 95       	neg	r22
 6b2:	7f 4f       	sbci	r23, 0xFF	; 255
 6b4:	8f 4f       	sbci	r24, 0xFF	; 255
 6b6:	9f 4f       	sbci	r25, 0xFF	; 255
 6b8:	08 95       	ret

000006ba <__floatunsisf>:
 6ba:	e8 94       	clt
 6bc:	09 c0       	rjmp	.+18     	; 0x6d0 <__floatsisf+0x12>

000006be <__floatsisf>:
 6be:	97 fb       	bst	r25, 7
 6c0:	3e f4       	brtc	.+14     	; 0x6d0 <__floatsisf+0x12>
 6c2:	90 95       	com	r25
 6c4:	80 95       	com	r24
 6c6:	70 95       	com	r23
 6c8:	61 95       	neg	r22
 6ca:	7f 4f       	sbci	r23, 0xFF	; 255
 6cc:	8f 4f       	sbci	r24, 0xFF	; 255
 6ce:	9f 4f       	sbci	r25, 0xFF	; 255
 6d0:	99 23       	and	r25, r25
 6d2:	a9 f0       	breq	.+42     	; 0x6fe <__floatsisf+0x40>
 6d4:	f9 2f       	mov	r31, r25
 6d6:	96 e9       	ldi	r25, 0x96	; 150
 6d8:	bb 27       	eor	r27, r27
 6da:	93 95       	inc	r25
 6dc:	f6 95       	lsr	r31
 6de:	87 95       	ror	r24
 6e0:	77 95       	ror	r23
 6e2:	67 95       	ror	r22
 6e4:	b7 95       	ror	r27
 6e6:	f1 11       	cpse	r31, r1
 6e8:	f8 cf       	rjmp	.-16     	; 0x6da <__floatsisf+0x1c>
 6ea:	fa f4       	brpl	.+62     	; 0x72a <__floatsisf+0x6c>
 6ec:	bb 0f       	add	r27, r27
 6ee:	11 f4       	brne	.+4      	; 0x6f4 <__floatsisf+0x36>
 6f0:	60 ff       	sbrs	r22, 0
 6f2:	1b c0       	rjmp	.+54     	; 0x72a <__floatsisf+0x6c>
 6f4:	6f 5f       	subi	r22, 0xFF	; 255
 6f6:	7f 4f       	sbci	r23, 0xFF	; 255
 6f8:	8f 4f       	sbci	r24, 0xFF	; 255
 6fa:	9f 4f       	sbci	r25, 0xFF	; 255
 6fc:	16 c0       	rjmp	.+44     	; 0x72a <__floatsisf+0x6c>
 6fe:	88 23       	and	r24, r24
 700:	11 f0       	breq	.+4      	; 0x706 <__floatsisf+0x48>
 702:	96 e9       	ldi	r25, 0x96	; 150
 704:	11 c0       	rjmp	.+34     	; 0x728 <__floatsisf+0x6a>
 706:	77 23       	and	r23, r23
 708:	21 f0       	breq	.+8      	; 0x712 <__floatsisf+0x54>
 70a:	9e e8       	ldi	r25, 0x8E	; 142
 70c:	87 2f       	mov	r24, r23
 70e:	76 2f       	mov	r23, r22
 710:	05 c0       	rjmp	.+10     	; 0x71c <__floatsisf+0x5e>
 712:	66 23       	and	r22, r22
 714:	71 f0       	breq	.+28     	; 0x732 <__floatsisf+0x74>
 716:	96 e8       	ldi	r25, 0x86	; 134
 718:	86 2f       	mov	r24, r22
 71a:	70 e0       	ldi	r23, 0x00	; 0
 71c:	60 e0       	ldi	r22, 0x00	; 0
 71e:	2a f0       	brmi	.+10     	; 0x72a <__floatsisf+0x6c>
 720:	9a 95       	dec	r25
 722:	66 0f       	add	r22, r22
 724:	77 1f       	adc	r23, r23
 726:	88 1f       	adc	r24, r24
 728:	da f7       	brpl	.-10     	; 0x720 <__floatsisf+0x62>
 72a:	88 0f       	add	r24, r24
 72c:	96 95       	lsr	r25
 72e:	87 95       	ror	r24
 730:	97 f9       	bld	r25, 7
 732:	08 95       	ret

00000734 <__fp_cmp>:
 734:	99 0f       	add	r25, r25
 736:	00 08       	sbc	r0, r0
 738:	55 0f       	add	r21, r21
 73a:	aa 0b       	sbc	r26, r26
 73c:	e0 e8       	ldi	r30, 0x80	; 128
 73e:	fe ef       	ldi	r31, 0xFE	; 254
 740:	16 16       	cp	r1, r22
 742:	17 06       	cpc	r1, r23
 744:	e8 07       	cpc	r30, r24
 746:	f9 07       	cpc	r31, r25
 748:	c0 f0       	brcs	.+48     	; 0x77a <__fp_cmp+0x46>
 74a:	12 16       	cp	r1, r18
 74c:	13 06       	cpc	r1, r19
 74e:	e4 07       	cpc	r30, r20
 750:	f5 07       	cpc	r31, r21
 752:	98 f0       	brcs	.+38     	; 0x77a <__fp_cmp+0x46>
 754:	62 1b       	sub	r22, r18
 756:	73 0b       	sbc	r23, r19
 758:	84 0b       	sbc	r24, r20
 75a:	95 0b       	sbc	r25, r21
 75c:	39 f4       	brne	.+14     	; 0x76c <__fp_cmp+0x38>
 75e:	0a 26       	eor	r0, r26
 760:	61 f0       	breq	.+24     	; 0x77a <__fp_cmp+0x46>
 762:	23 2b       	or	r18, r19
 764:	24 2b       	or	r18, r20
 766:	25 2b       	or	r18, r21
 768:	21 f4       	brne	.+8      	; 0x772 <__fp_cmp+0x3e>
 76a:	08 95       	ret
 76c:	0a 26       	eor	r0, r26
 76e:	09 f4       	brne	.+2      	; 0x772 <__fp_cmp+0x3e>
 770:	a1 40       	sbci	r26, 0x01	; 1
 772:	a6 95       	lsr	r26
 774:	8f ef       	ldi	r24, 0xFF	; 255
 776:	81 1d       	adc	r24, r1
 778:	81 1d       	adc	r24, r1
 77a:	08 95       	ret

0000077c <__fp_split3>:
 77c:	57 fd       	sbrc	r21, 7
 77e:	90 58       	subi	r25, 0x80	; 128
 780:	44 0f       	add	r20, r20
 782:	55 1f       	adc	r21, r21
 784:	59 f0       	breq	.+22     	; 0x79c <__fp_splitA+0x10>
 786:	5f 3f       	cpi	r21, 0xFF	; 255
 788:	71 f0       	breq	.+28     	; 0x7a6 <__fp_splitA+0x1a>
 78a:	47 95       	ror	r20

0000078c <__fp_splitA>:
 78c:	88 0f       	add	r24, r24
 78e:	97 fb       	bst	r25, 7
 790:	99 1f       	adc	r25, r25
 792:	61 f0       	breq	.+24     	; 0x7ac <__fp_splitA+0x20>
 794:	9f 3f       	cpi	r25, 0xFF	; 255
 796:	79 f0       	breq	.+30     	; 0x7b6 <__fp_splitA+0x2a>
 798:	87 95       	ror	r24
 79a:	08 95       	ret
 79c:	12 16       	cp	r1, r18
 79e:	13 06       	cpc	r1, r19
 7a0:	14 06       	cpc	r1, r20
 7a2:	55 1f       	adc	r21, r21
 7a4:	f2 cf       	rjmp	.-28     	; 0x78a <__fp_split3+0xe>
 7a6:	46 95       	lsr	r20
 7a8:	f1 df       	rcall	.-30     	; 0x78c <__fp_splitA>
 7aa:	08 c0       	rjmp	.+16     	; 0x7bc <__fp_splitA+0x30>
 7ac:	16 16       	cp	r1, r22
 7ae:	17 06       	cpc	r1, r23
 7b0:	18 06       	cpc	r1, r24
 7b2:	99 1f       	adc	r25, r25
 7b4:	f1 cf       	rjmp	.-30     	; 0x798 <__fp_splitA+0xc>
 7b6:	86 95       	lsr	r24
 7b8:	71 05       	cpc	r23, r1
 7ba:	61 05       	cpc	r22, r1
 7bc:	08 94       	sec
 7be:	08 95       	ret

000007c0 <__fp_zero>:
 7c0:	e8 94       	clt

000007c2 <__fp_szero>:
 7c2:	bb 27       	eor	r27, r27
 7c4:	66 27       	eor	r22, r22
 7c6:	77 27       	eor	r23, r23
 7c8:	cb 01       	movw	r24, r22
 7ca:	97 f9       	bld	r25, 7
 7cc:	08 95       	ret

000007ce <__mulsf3>:
 7ce:	0b d0       	rcall	.+22     	; 0x7e6 <__mulsf3x>
 7d0:	cf c0       	rjmp	.+414    	; 0x970 <__fp_round>
 7d2:	c0 d0       	rcall	.+384    	; 0x954 <__fp_pscA>
 7d4:	28 f0       	brcs	.+10     	; 0x7e0 <__mulsf3+0x12>
 7d6:	c5 d0       	rcall	.+394    	; 0x962 <__fp_pscB>
 7d8:	18 f0       	brcs	.+6      	; 0x7e0 <__mulsf3+0x12>
 7da:	95 23       	and	r25, r21
 7dc:	09 f0       	breq	.+2      	; 0x7e0 <__mulsf3+0x12>
 7de:	9c c0       	rjmp	.+312    	; 0x918 <__fp_inf>
 7e0:	af c0       	rjmp	.+350    	; 0x940 <__fp_nan>
 7e2:	11 24       	eor	r1, r1
 7e4:	ee cf       	rjmp	.-36     	; 0x7c2 <__fp_szero>

000007e6 <__mulsf3x>:
 7e6:	ca df       	rcall	.-108    	; 0x77c <__fp_split3>
 7e8:	a0 f3       	brcs	.-24     	; 0x7d2 <__mulsf3+0x4>

000007ea <__mulsf3_pse>:
 7ea:	95 9f       	mul	r25, r21
 7ec:	d1 f3       	breq	.-12     	; 0x7e2 <__mulsf3+0x14>
 7ee:	95 0f       	add	r25, r21
 7f0:	50 e0       	ldi	r21, 0x00	; 0
 7f2:	55 1f       	adc	r21, r21
 7f4:	62 9f       	mul	r22, r18
 7f6:	f0 01       	movw	r30, r0
 7f8:	72 9f       	mul	r23, r18
 7fa:	bb 27       	eor	r27, r27
 7fc:	f0 0d       	add	r31, r0
 7fe:	b1 1d       	adc	r27, r1
 800:	63 9f       	mul	r22, r19
 802:	aa 27       	eor	r26, r26
 804:	f0 0d       	add	r31, r0
 806:	b1 1d       	adc	r27, r1
 808:	aa 1f       	adc	r26, r26
 80a:	64 9f       	mul	r22, r20
 80c:	66 27       	eor	r22, r22
 80e:	b0 0d       	add	r27, r0
 810:	a1 1d       	adc	r26, r1
 812:	66 1f       	adc	r22, r22
 814:	82 9f       	mul	r24, r18
 816:	22 27       	eor	r18, r18
 818:	b0 0d       	add	r27, r0
 81a:	a1 1d       	adc	r26, r1
 81c:	62 1f       	adc	r22, r18
 81e:	73 9f       	mul	r23, r19
 820:	b0 0d       	add	r27, r0
 822:	a1 1d       	adc	r26, r1
 824:	62 1f       	adc	r22, r18
 826:	83 9f       	mul	r24, r19
 828:	a0 0d       	add	r26, r0
 82a:	61 1d       	adc	r22, r1
 82c:	22 1f       	adc	r18, r18
 82e:	74 9f       	mul	r23, r20
 830:	33 27       	eor	r19, r19
 832:	a0 0d       	add	r26, r0
 834:	61 1d       	adc	r22, r1
 836:	23 1f       	adc	r18, r19
 838:	84 9f       	mul	r24, r20
 83a:	60 0d       	add	r22, r0
 83c:	21 1d       	adc	r18, r1
 83e:	82 2f       	mov	r24, r18
 840:	76 2f       	mov	r23, r22
 842:	6a 2f       	mov	r22, r26
 844:	11 24       	eor	r1, r1
 846:	9f 57       	subi	r25, 0x7F	; 127
 848:	50 40       	sbci	r21, 0x00	; 0
 84a:	8a f0       	brmi	.+34     	; 0x86e <__mulsf3_pse+0x84>
 84c:	e1 f0       	breq	.+56     	; 0x886 <__mulsf3_pse+0x9c>
 84e:	88 23       	and	r24, r24
 850:	4a f0       	brmi	.+18     	; 0x864 <__mulsf3_pse+0x7a>
 852:	ee 0f       	add	r30, r30
 854:	ff 1f       	adc	r31, r31
 856:	bb 1f       	adc	r27, r27
 858:	66 1f       	adc	r22, r22
 85a:	77 1f       	adc	r23, r23
 85c:	88 1f       	adc	r24, r24
 85e:	91 50       	subi	r25, 0x01	; 1
 860:	50 40       	sbci	r21, 0x00	; 0
 862:	a9 f7       	brne	.-22     	; 0x84e <__mulsf3_pse+0x64>
 864:	9e 3f       	cpi	r25, 0xFE	; 254
 866:	51 05       	cpc	r21, r1
 868:	70 f0       	brcs	.+28     	; 0x886 <__mulsf3_pse+0x9c>
 86a:	56 c0       	rjmp	.+172    	; 0x918 <__fp_inf>
 86c:	aa cf       	rjmp	.-172    	; 0x7c2 <__fp_szero>
 86e:	5f 3f       	cpi	r21, 0xFF	; 255
 870:	ec f3       	brlt	.-6      	; 0x86c <__mulsf3_pse+0x82>
 872:	98 3e       	cpi	r25, 0xE8	; 232
 874:	dc f3       	brlt	.-10     	; 0x86c <__mulsf3_pse+0x82>
 876:	86 95       	lsr	r24
 878:	77 95       	ror	r23
 87a:	67 95       	ror	r22
 87c:	b7 95       	ror	r27
 87e:	f7 95       	ror	r31
 880:	e7 95       	ror	r30
 882:	9f 5f       	subi	r25, 0xFF	; 255
 884:	c1 f7       	brne	.-16     	; 0x876 <__mulsf3_pse+0x8c>
 886:	fe 2b       	or	r31, r30
 888:	88 0f       	add	r24, r24
 88a:	91 1d       	adc	r25, r1
 88c:	96 95       	lsr	r25
 88e:	87 95       	ror	r24
 890:	97 f9       	bld	r25, 7
 892:	08 95       	ret
 894:	11 f4       	brne	.+4      	; 0x89a <__mulsf3_pse+0xb0>
 896:	0e f4       	brtc	.+2      	; 0x89a <__mulsf3_pse+0xb0>
 898:	53 c0       	rjmp	.+166    	; 0x940 <__fp_nan>
 89a:	44 c0       	rjmp	.+136    	; 0x924 <__fp_mpack>

0000089c <sqrt>:
 89c:	77 df       	rcall	.-274    	; 0x78c <__fp_splitA>
 89e:	d0 f3       	brcs	.-12     	; 0x894 <__mulsf3_pse+0xaa>
 8a0:	99 23       	and	r25, r25
 8a2:	d9 f3       	breq	.-10     	; 0x89a <__mulsf3_pse+0xb0>
 8a4:	ce f3       	brts	.-14     	; 0x898 <__mulsf3_pse+0xae>
 8a6:	9f 57       	subi	r25, 0x7F	; 127
 8a8:	55 0b       	sbc	r21, r21
 8aa:	87 ff       	sbrs	r24, 7
 8ac:	4c d0       	rcall	.+152    	; 0x946 <__fp_norm2>
 8ae:	00 24       	eor	r0, r0
 8b0:	a0 e6       	ldi	r26, 0x60	; 96
 8b2:	40 ea       	ldi	r20, 0xA0	; 160
 8b4:	90 01       	movw	r18, r0
 8b6:	80 58       	subi	r24, 0x80	; 128
 8b8:	56 95       	lsr	r21
 8ba:	97 95       	ror	r25
 8bc:	28 f4       	brcc	.+10     	; 0x8c8 <sqrt+0x2c>
 8be:	80 5c       	subi	r24, 0xC0	; 192
 8c0:	66 0f       	add	r22, r22
 8c2:	77 1f       	adc	r23, r23
 8c4:	88 1f       	adc	r24, r24
 8c6:	20 f0       	brcs	.+8      	; 0x8d0 <sqrt+0x34>
 8c8:	26 17       	cp	r18, r22
 8ca:	37 07       	cpc	r19, r23
 8cc:	48 07       	cpc	r20, r24
 8ce:	30 f4       	brcc	.+12     	; 0x8dc <sqrt+0x40>
 8d0:	62 1b       	sub	r22, r18
 8d2:	73 0b       	sbc	r23, r19
 8d4:	84 0b       	sbc	r24, r20
 8d6:	20 29       	or	r18, r0
 8d8:	31 29       	or	r19, r1
 8da:	4a 2b       	or	r20, r26
 8dc:	a6 95       	lsr	r26
 8de:	17 94       	ror	r1
 8e0:	07 94       	ror	r0
 8e2:	20 25       	eor	r18, r0
 8e4:	31 25       	eor	r19, r1
 8e6:	4a 27       	eor	r20, r26
 8e8:	58 f7       	brcc	.-42     	; 0x8c0 <sqrt+0x24>
 8ea:	66 0f       	add	r22, r22
 8ec:	77 1f       	adc	r23, r23
 8ee:	88 1f       	adc	r24, r24
 8f0:	20 f0       	brcs	.+8      	; 0x8fa <sqrt+0x5e>
 8f2:	26 17       	cp	r18, r22
 8f4:	37 07       	cpc	r19, r23
 8f6:	48 07       	cpc	r20, r24
 8f8:	30 f4       	brcc	.+12     	; 0x906 <sqrt+0x6a>
 8fa:	62 0b       	sbc	r22, r18
 8fc:	73 0b       	sbc	r23, r19
 8fe:	84 0b       	sbc	r24, r20
 900:	20 0d       	add	r18, r0
 902:	31 1d       	adc	r19, r1
 904:	41 1d       	adc	r20, r1
 906:	a0 95       	com	r26
 908:	81 f7       	brne	.-32     	; 0x8ea <sqrt+0x4e>
 90a:	b9 01       	movw	r22, r18
 90c:	84 2f       	mov	r24, r20
 90e:	91 58       	subi	r25, 0x81	; 129
 910:	88 0f       	add	r24, r24
 912:	96 95       	lsr	r25
 914:	87 95       	ror	r24
 916:	08 95       	ret

00000918 <__fp_inf>:
 918:	97 f9       	bld	r25, 7
 91a:	9f 67       	ori	r25, 0x7F	; 127
 91c:	80 e8       	ldi	r24, 0x80	; 128
 91e:	70 e0       	ldi	r23, 0x00	; 0
 920:	60 e0       	ldi	r22, 0x00	; 0
 922:	08 95       	ret

00000924 <__fp_mpack>:
 924:	9f 3f       	cpi	r25, 0xFF	; 255
 926:	31 f0       	breq	.+12     	; 0x934 <__fp_mpack_finite+0xc>

00000928 <__fp_mpack_finite>:
 928:	91 50       	subi	r25, 0x01	; 1
 92a:	20 f4       	brcc	.+8      	; 0x934 <__fp_mpack_finite+0xc>
 92c:	87 95       	ror	r24
 92e:	77 95       	ror	r23
 930:	67 95       	ror	r22
 932:	b7 95       	ror	r27
 934:	88 0f       	add	r24, r24
 936:	91 1d       	adc	r25, r1
 938:	96 95       	lsr	r25
 93a:	87 95       	ror	r24
 93c:	97 f9       	bld	r25, 7
 93e:	08 95       	ret

00000940 <__fp_nan>:
 940:	9f ef       	ldi	r25, 0xFF	; 255
 942:	80 ec       	ldi	r24, 0xC0	; 192
 944:	08 95       	ret

00000946 <__fp_norm2>:
 946:	91 50       	subi	r25, 0x01	; 1
 948:	50 40       	sbci	r21, 0x00	; 0
 94a:	66 0f       	add	r22, r22
 94c:	77 1f       	adc	r23, r23
 94e:	88 1f       	adc	r24, r24
 950:	d2 f7       	brpl	.-12     	; 0x946 <__fp_norm2>
 952:	08 95       	ret

00000954 <__fp_pscA>:
 954:	00 24       	eor	r0, r0
 956:	0a 94       	dec	r0
 958:	16 16       	cp	r1, r22
 95a:	17 06       	cpc	r1, r23
 95c:	18 06       	cpc	r1, r24
 95e:	09 06       	cpc	r0, r25
 960:	08 95       	ret

00000962 <__fp_pscB>:
 962:	00 24       	eor	r0, r0
 964:	0a 94       	dec	r0
 966:	12 16       	cp	r1, r18
 968:	13 06       	cpc	r1, r19
 96a:	14 06       	cpc	r1, r20
 96c:	05 06       	cpc	r0, r21
 96e:	08 95       	ret

00000970 <__fp_round>:
 970:	09 2e       	mov	r0, r25
 972:	03 94       	inc	r0
 974:	00 0c       	add	r0, r0
 976:	11 f4       	brne	.+4      	; 0x97c <__fp_round+0xc>
 978:	88 23       	and	r24, r24
 97a:	52 f0       	brmi	.+20     	; 0x990 <__fp_round+0x20>
 97c:	bb 0f       	add	r27, r27
 97e:	40 f4       	brcc	.+16     	; 0x990 <__fp_round+0x20>
 980:	bf 2b       	or	r27, r31
 982:	11 f4       	brne	.+4      	; 0x988 <__fp_round+0x18>
 984:	60 ff       	sbrs	r22, 0
 986:	04 c0       	rjmp	.+8      	; 0x990 <__fp_round+0x20>
 988:	6f 5f       	subi	r22, 0xFF	; 255
 98a:	7f 4f       	sbci	r23, 0xFF	; 255
 98c:	8f 4f       	sbci	r24, 0xFF	; 255
 98e:	9f 4f       	sbci	r25, 0xFF	; 255
 990:	08 95       	ret

00000992 <__divmodhi4>:
 992:	97 fb       	bst	r25, 7
 994:	07 2e       	mov	r0, r23
 996:	16 f4       	brtc	.+4      	; 0x99c <__divmodhi4+0xa>
 998:	00 94       	com	r0
 99a:	06 d0       	rcall	.+12     	; 0x9a8 <__divmodhi4_neg1>
 99c:	77 fd       	sbrc	r23, 7
 99e:	08 d0       	rcall	.+16     	; 0x9b0 <__divmodhi4_neg2>
 9a0:	0b d0       	rcall	.+22     	; 0x9b8 <__udivmodhi4>
 9a2:	07 fc       	sbrc	r0, 7
 9a4:	05 d0       	rcall	.+10     	; 0x9b0 <__divmodhi4_neg2>
 9a6:	3e f4       	brtc	.+14     	; 0x9b6 <__divmodhi4_exit>

000009a8 <__divmodhi4_neg1>:
 9a8:	90 95       	com	r25
 9aa:	81 95       	neg	r24
 9ac:	9f 4f       	sbci	r25, 0xFF	; 255
 9ae:	08 95       	ret

000009b0 <__divmodhi4_neg2>:
 9b0:	70 95       	com	r23
 9b2:	61 95       	neg	r22
 9b4:	7f 4f       	sbci	r23, 0xFF	; 255

000009b6 <__divmodhi4_exit>:
 9b6:	08 95       	ret

000009b8 <__udivmodhi4>:
 9b8:	aa 1b       	sub	r26, r26
 9ba:	bb 1b       	sub	r27, r27
 9bc:	51 e1       	ldi	r21, 0x11	; 17
 9be:	07 c0       	rjmp	.+14     	; 0x9ce <__udivmodhi4_ep>

000009c0 <__udivmodhi4_loop>:
 9c0:	aa 1f       	adc	r26, r26
 9c2:	bb 1f       	adc	r27, r27
 9c4:	a6 17       	cp	r26, r22
 9c6:	b7 07       	cpc	r27, r23
 9c8:	10 f0       	brcs	.+4      	; 0x9ce <__udivmodhi4_ep>
 9ca:	a6 1b       	sub	r26, r22
 9cc:	b7 0b       	sbc	r27, r23

000009ce <__udivmodhi4_ep>:
 9ce:	88 1f       	adc	r24, r24
 9d0:	99 1f       	adc	r25, r25
 9d2:	5a 95       	dec	r21
 9d4:	a9 f7       	brne	.-22     	; 0x9c0 <__udivmodhi4_loop>
 9d6:	80 95       	com	r24
 9d8:	90 95       	com	r25
 9da:	bc 01       	movw	r22, r24
 9dc:	cd 01       	movw	r24, r26
 9de:	08 95       	ret

000009e0 <_exit>:
 9e0:	f8 94       	cli

000009e2 <__stop_program>:
 9e2:	ff cf       	rjmp	.-2      	; 0x9e2 <__stop_program>
